; Function Attrs: mustprogress nofree norecurse nosync nounwind willreturn memory(read, inaccessiblemem: none) uwtable
define dso_local noundef zeroext i1 @_ZNK4llvm15ELFObjectWriter8usesRelaEPKNS_15MCTargetOptionsERKNS_12MCSectionELFE(ptr nocapture noundef nonnull readonly align 8 dereferenceable(208) %0, ptr noundef readonly %1, ptr nocapture noundef nonnull readonly align 8 dereferenceable(200) %2) local_unnamed_addr #2 align 2 {
  %4 = getelementptr inbounds nuw i8, ptr %0, i64 112
  %5 = load ptr, ptr %4, align 8
  %6 = getelementptr inbounds nuw i8, ptr %5, i64 12
  %7 = load i8, ptr %6, align 4
  %8 = and i8 %7, 1
  %9 = icmp eq i8 %8, 0
  %10 = getelementptr inbounds nuw i8, ptr %2, i64 148
  %11 = load i32, ptr %10, align 4
  %.not = icmp eq i32 %11, 1879002121
  %or.cond = select i1 %9, i1 true, i1 %.not
  br i1 %or.cond, label %12, label %17

12:                                               ; preds = %3
  %.not4 = icmp eq ptr %1, null
  br i1 %.not4, label %17, label %13

13:                                               ; preds = %12
  %14 = getelementptr inbounds nuw i8, ptr %1, i64 2
  %15 = load i8, ptr %14, align 2
  %16 = trunc i8 %15 to i1
  br label %17

17:                                               ; preds = %3, %12, %13
  %18 = phi i1 [ false, %12 ], [ %16, %13 ], [ true, %3 ]
  ret i1 %18
}